target datalayout = "e-m:e-p270:32:32-p271:32:32-p272:64:64-i64:64-i128:128-f80:128-n8:16:32:64-S128"
target triple = "x86_64-pc-linux-gnu"

%struct.Fraig_ManStruct_t_ = type { ptr, ptr, ptr, ptr, ptr, ptr, ptr, ptr, ptr, i32, i32, i32, i32, i32, i32, i32, i32, i32, i32, i32, i32, i64, i32, i32, i32, i32, i32, ptr, ptr, ptr, ptr, ptr, i32, ptr, ptr, ptr, ptr, ptr, ptr, i32, ptr, ptr, ptr, ptr, i32, i32, i32, i32, i32, i32, i32, i32, i32, i32, i32, i32, i32, i32, i32, i32, i32, i32, i32, i64, i64, i64, i64, i64, i64, i64, i64, i64, i64, i64, i64 }
%struct.Fraig_NodeVecStruct_t_ = type { i32, i32, ptr }

; Function Attrs: nounwind uwtable
define ptr @Fraig_Dfs(ptr noundef %0, i32 noundef %1) #0 {
  %3 = alloca ptr, align 8
  %4 = alloca i32, align 4
  %5 = alloca ptr, align 8
  %6 = alloca i32, align 4
  store ptr %0, ptr %3, align 8
  store i32 %1, ptr %4, align 4
  %7 = load ptr, ptr %3, align 8
  %8 = getelementptr inbounds %struct.Fraig_ManStruct_t_, ptr %7, i32 0, i32 22
  %9 = load i32, ptr %8, align 8
  %10 = add nsw i32 %9, 1
  store i32 %10, ptr %8, align 8
  %11 = call ptr @Fraig_NodeVecAlloc(i32 noundef 100)
  store ptr %11, ptr %5, align 8
  store i32 0, ptr %6, align 4
  br label %12

12:                                               ; preds = %36, %2
  %13 = load i32, ptr %6, align 4
  %14 = load ptr, ptr %3, align 8
  %15 = getelementptr inbounds %struct.Fraig_ManStruct_t_, ptr %14, i32 0, i32 2
  %16 = load ptr, ptr %15, align 8
  %17 = getelementptr inbounds %struct.Fraig_NodeVecStruct_t_, ptr %16, i32 0, i32 1
  %18 = load i32, ptr %17, align 4
  %19 = icmp slt i32 %13, %18
  br i1 %19, label %20, label %39

20:                                               ; preds = %12
  %21 = load ptr, ptr %3, align 8
  %22 = load ptr, ptr %3, align 8
  %23 = getelementptr inbounds %struct.Fraig_ManStruct_t_, ptr %22, i32 0, i32 2
  %24 = load ptr, ptr %23, align 8
  %25 = getelementptr inbounds %struct.Fraig_NodeVecStruct_t_, ptr %24, i32 0, i32 2
  %26 = load ptr, ptr %25, align 8
  %27 = load i32, ptr %6, align 4
  %28 = sext i32 %27 to i64
  %29 = getelementptr inbounds ptr, ptr %26, i64 %28
  %30 = load ptr, ptr %29, align 8
  %31 = ptrtoint ptr %30 to i64
  %32 = and i64 %31, -2
  %33 = inttoptr i64 %32 to ptr
  %34 = load ptr, ptr %5, align 8
  %35 = load i32, ptr %4, align 4
  call void @Fraig_Dfs_rec(ptr noundef %21, ptr noundef %33, ptr noundef %34, i32 noundef %35)
  br label %36

36:                                               ; preds = %20
  %37 = load i32, ptr %6, align 4
  %38 = add nsw i32 %37, 1
  store i32 %38, ptr %6, align 4
  br label %12, !llvm.loop !4

39:                                               ; preds = %12
  %40 = load ptr, ptr %5, align 8
  ret ptr %40
}