; Function Attrs: nounwind uwtable
define ptr @Fraig_Dfs(ptr noundef captures(none) %0, i32 noundef %1) local_unnamed_addr #0 {
  %3 = getelementptr inbounds nuw i8, ptr %0, i64 128
  %4 = load i32, ptr %3, align 8
  %5 = add nsw i32 %4, 1
  store i32 %5, ptr %3, align 8
  %6 = tail call ptr @Fraig_NodeVecAlloc(i32 noundef 100) #15
  %7 = getelementptr inbounds nuw i8, ptr %0, i64 16
  %8 = load ptr, ptr %7, align 8
  %9 = getelementptr inbounds nuw i8, ptr %8, i64 4
  %10 = load i32, ptr %9, align 4
  %11 = icmp sgt i32 %10, 0
  br i1 %11, label %.lr.ph, label %._crit_edge

.lr.ph:                                           ; preds = %2, %.lr.ph
  %indvars.iv = phi i64 [ %indvars.iv.next, %.lr.ph ], [ 0, %2 ]
  %12 = phi ptr [ %20, %.lr.ph ], [ %8, %2 ]
  %13 = getelementptr inbounds nuw i8, ptr %12, i64 8
  %14 = load ptr, ptr %13, align 8
  %15 = getelementptr inbounds nuw ptr, ptr %14, i64 %indvars.iv
  %16 = load ptr, ptr %15, align 8
  %17 = ptrtoint ptr %16 to i64
  %18 = and i64 %17, -2
  %19 = inttoptr i64 %18 to ptr
  %.val = load i32, ptr %3, align 8
  tail call fastcc void @Fraig_Dfs_rec(i32 %.val, ptr noundef %19, ptr noundef %6, i32 noundef %1)
  %indvars.iv.next = add nuw nsw i64 %indvars.iv, 1
  %20 = load ptr, ptr %7, align 8
  %21 = getelementptr inbounds nuw i8, ptr %20, i64 4
  %22 = load i32, ptr %21, align 4
  %23 = sext i32 %22 to i64
  %24 = icmp slt i64 %indvars.iv.next, %23
  br i1 %24, label %.lr.ph, label %._crit_edge, !llvm.loop !4

._crit_edge:                                      ; preds = %.lr.ph, %2
  ret ptr %6
}